(lp0
S'poi'
p1
aS'salary'
p2
aS'bonus'
p3
aS'long_term_incentive'
p4
aS'bonus_to_Salary_Differencial'
p5
aS'deferral_payments'
p6
aS'expenses'
p7
aS'restricted_stock_deferred'
p8
aS'restricted_stock'
p9
aS'deferred_income'
p10
aS'total_payments'
p11
aS'other'
p12
aS'from_poi_to_this_person'
p13
aS'from_this_person_to_poi'
p14
aS'to_messages'
p15
aS'from_messages'
p16
aS'shared_receipt_with_poi'
p17
aS'loan_advances'
p18
aS'director_fees'
p19
aS'exercised_stock_options'
p20
aS'total_stock_value'
p21
ag9
a.